; Function Attrs: mustprogress nounwind uwtable
define hidden noundef i32 @_ZN20TypeStackSlotEntries18compute_cell_countEP6Symbolbi(ptr noundef %0, i1 noundef zeroext %1, i32 noundef %2) local_unnamed_addr #2 align 2 {
  %4 = alloca %class.ReferenceArgumentCount, align 8
  %5 = tail call align 8 ptr @llvm.threadlocal.address.p0(ptr align 8 @_ZN6Thread12_thr_currentE)
  %6 = load ptr, ptr %5, align 8
  %7 = getelementptr inbounds i8, ptr %6, i64 800
  %8 = load ptr, ptr %7, align 8
  %9 = getelementptr inbounds i8, ptr %8, i64 24
  %10 = load ptr, ptr %9, align 8
  %11 = getelementptr inbounds i8, ptr %8, i64 32
  %12 = load ptr, ptr %11, align 8
  %13 = getelementptr inbounds i8, ptr %8, i64 40
  %14 = load ptr, ptr %13, align 8
  %15 = getelementptr inbounds i8, ptr %8, i64 8
  %16 = load i64, ptr %15, align 8
  call void @_ZN22ReferenceArgumentCountC1EP6Symbol(ptr noundef nonnull align 8 dereferenceable(28) %4, ptr noundef %0) #20
  %17 = getelementptr inbounds i8, ptr %4, i64 24
  %18 = load i32, ptr %17, align 8
  %19 = load ptr, ptr %10, align 8
  %.not.i.i.i.i = icmp eq ptr %19, null
  br i1 %.not.i.i.i.i, label %21, label %20

20:                                               ; preds = %3
  call void @_ZN5Arena17set_size_in_bytesEm(ptr noundef nonnull align 8 dereferenceable(48) %8, i64 noundef %16) #20
  call void @_ZN5Chunk9next_chopEPS_(ptr noundef nonnull %10) #20
  br label %21

21:                                               ; preds = %20, %3
  %22 = load ptr, ptr %11, align 8
  %.not8.i.i.i.i = icmp eq ptr %22, %12
  br i1 %.not8.i.i.i.i, label %_ZN12ResourceMarkD2Ev.exit, label %23

23:                                               ; preds = %21
  store ptr %10, ptr %9, align 8
  store ptr %12, ptr %11, align 8
  store ptr %14, ptr %13, align 8
  br label %_ZN12ResourceMarkD2Ev.exit

_ZN12ResourceMarkD2Ev.exit:                       ; preds = %21, %23
  %24 = zext i1 %1 to i32
  %25 = add nsw i32 %18, %24
  %26 = call noundef i32 @llvm.smin.i32(i32 %25, i32 %2)
  %27 = shl nsw i32 %26, 1
  ret i32 %27
}